target datalayout = "e-m:e-p270:32:32-p271:32:32-p272:64:64-i64:64-i128:128-f80:128-n8:16:32:64-S128"
target triple = "x86_64-pc-linux-gnu"

%class.Symbol = type { i32, i16, [2 x i8] }
%class.GrowableArrayBase = type { i32, i32 }
%class.GrowableArrayView = type { %class.GrowableArrayBase, ptr }

@g_assert_poison = external global ptr, align 8
@_ZN14ArchiveBuilder8_currentE = external global ptr, align 8
@.str.60 = private unnamed_addr constant [41 x i8] c"src/hotspot/share/cds/archiveBuilder.hpp\00", align 1
@.str.61 = private unnamed_addr constant [45 x i8] c"guarantee(offset <= MAX_SHARED_DELTA) failed\00", align 1
@.str.62 = private unnamed_addr constant [31 x i8] c"must be 32-bit offset 0x%016lx\00", align 1

; Function Attrs: mustprogress nounwind uwtable
define linkonce_odr hidden noundef i32 @_ZN14ArchiveBuilder12to_offset_u4Em(i64 noundef %0) #1 comdat align 2 {
  %2 = alloca i64, align 8
  store i64 %0, ptr %2, align 8
  br label %3

3:                                                ; preds = %1
  %4 = load i64, ptr %2, align 8
  %5 = icmp ule i64 %4, 2147483647
  br i1 %5, label %9, label %6

6:                                                ; preds = %3
  %7 = load ptr, ptr @g_assert_poison, align 8
  store i8 88, ptr %7, align 1
  %8 = load i64, ptr %2, align 8
  call void (ptr, i32, ptr, ptr, ...) @_Z15report_vm_errorPKciS0_S0_z(ptr noundef @.str.60, i32 noundef 319, ptr noundef @.str.61, ptr noundef @.str.62, i64 noundef %8) #11
  unreachable

9:                                                ; preds = %3
  br label %10

10:                                               ; preds = %9
  %11 = load i64, ptr %2, align 8
  %12 = trunc i64 %11 to i32
  ret i32 %12
}

; Function Attrs: mustprogress nounwind uwtable
define linkonce_odr hidden noundef i32 @_ZN16java_lang_String9hash_codeEPKai(ptr noundef %0, i32 noundef %1) #1 comdat align 2 {
  %3 = alloca ptr, align 8
  %4 = alloca i32, align 4
  %5 = alloca i32, align 4
  store ptr %0, ptr %3, align 8
  store i32 %1, ptr %4, align 4
  store i32 0, ptr %5, align 4
  br label %6

6:                                                ; preds = %10, %2
  %7 = load i32, ptr %4, align 4
  %8 = add nsw i32 %7, -1
  store i32 %8, ptr %4, align 4
  %9 = icmp sgt i32 %7, 0
  br i1 %9, label %10, label %20

10:                                               ; preds = %6
  %11 = load i32, ptr %5, align 4
  %12 = mul i32 31, %11
  %13 = load ptr, ptr %3, align 8
  %14 = load i8, ptr %13, align 1
  %15 = sext i8 %14 to i32
  %16 = and i32 %15, 255
  %17 = add i32 %12, %16
  store i32 %17, ptr %5, align 4
  %18 = load ptr, ptr %3, align 8
  %19 = getelementptr inbounds i8, ptr %18, i32 1
  store ptr %19, ptr %3, align 8
  br label %6, !llvm.loop !23

20:                                               ; preds = %6
  %21 = load i32, ptr %5, align 4
  ret i32 %21
}

; Function Attrs: mustprogress nounwind uwtable
define linkonce_odr hidden noundef i32 @_ZNK6Symbol6lengthEv(ptr noundef nonnull align 4 dereferenceable(8) %0) #1 comdat align 2 {
  %2 = alloca ptr, align 8
  store ptr %0, ptr %2, align 8
  %3 = load ptr, ptr %2, align 8
  %4 = getelementptr inbounds %class.Symbol, ptr %3, i32 0, i32 1
  %5 = load i16, ptr %4, align 4
  %6 = zext i16 %5 to i32
  ret i32 %6
}

; Function Attrs: mustprogress nounwind uwtable
define linkonce_odr hidden noundef ptr @_ZNK6Symbol4baseEv(ptr noundef nonnull align 4 dereferenceable(8) %0) #1 comdat align 2 {
  %2 = alloca ptr, align 8
  store ptr %0, ptr %2, align 8
  %3 = load ptr, ptr %2, align 8
  %4 = getelementptr inbounds %class.Symbol, ptr %3, i32 0, i32 2
  %5 = getelementptr inbounds [2 x i8], ptr %4, i64 0, i64 0
  ret ptr %5
}

; Function Attrs: mustprogress nounwind uwtable
define linkonce_odr hidden noundef i32 @_ZNK14ArchiveBuilder19buffer_to_offset_u4IPhEEjT_(ptr noundef nonnull align 8 dereferenceable(1080) %0, ptr noundef %1) #1 comdat align 2 {
  %3 = alloca ptr, align 8
  %4 = alloca ptr, align 8
  %5 = alloca i64, align 8
  store ptr %0, ptr %3, align 8
  store ptr %1, ptr %4, align 8
  %6 = load ptr, ptr %3, align 8
  %7 = load ptr, ptr %4, align 8
  %8 = call noundef i64 @_ZNK14ArchiveBuilder16buffer_to_offsetEPh(ptr noundef nonnull align 8 dereferenceable(1080) %6, ptr noundef %7)
  store i64 %8, ptr %5, align 8
  %9 = load i64, ptr %5, align 8
  %10 = call noundef i32 @_ZN14ArchiveBuilder12to_offset_u4Em(i64 noundef %9)
  ret i32 %10
}

; Function Attrs: mustprogress nounwind uwtable
define internal noundef i32 @_ZL18hash_shared_symbolPKci(ptr noundef %0, i32 noundef %1) #1 {
  %3 = alloca ptr, align 8
  %4 = alloca i32, align 4
  store ptr %0, ptr %3, align 8
  store i32 %1, ptr %4, align 4
  %5 = load ptr, ptr %3, align 8
  %6 = load i32, ptr %4, align 4
  %7 = call noundef i32 @_ZN16java_lang_String9hash_codeEPKai(ptr noundef %5, i32 noundef %6)
  ret i32 %7
}

; Function Attrs: mustprogress nounwind uwtable
define linkonce_odr hidden noundef i32 @_ZNK6Symbol11utf8_lengthEv(ptr noundef nonnull align 4 dereferenceable(8) %0) #1 comdat align 2 {
  %2 = alloca ptr, align 8
  store ptr %0, ptr %2, align 8
  %3 = load ptr, ptr %2, align 8
  %4 = call noundef i32 @_ZNK6Symbol6lengthEv(ptr noundef nonnull align 4 dereferenceable(8) %3)
  ret i32 %4
}

; Function Attrs: mustprogress nounwind uwtable
define linkonce_odr hidden noundef ptr @_ZNK6Symbol5bytesEv(ptr noundef nonnull align 4 dereferenceable(8) %0) #1 comdat align 2 {
  %2 = alloca ptr, align 8
  store ptr %0, ptr %2, align 8
  %3 = load ptr, ptr %2, align 8
  %4 = call noundef ptr @_ZNK6Symbol4baseEv(ptr noundef nonnull align 4 dereferenceable(8) %3)
  ret ptr %4
}

; Function Attrs: mustprogress nounwind uwtable
define linkonce_odr hidden noundef ptr @_ZN14ArchiveBuilder19get_buffered_symbolEP6Symbol(ptr noundef %0) #1 comdat align 2 {
  %2 = alloca ptr, align 8
  store ptr %0, ptr %2, align 8
  %3 = call noundef ptr @_ZN14ArchiveBuilder7currentEv()
  %4 = load ptr, ptr %2, align 8
  %5 = call noundef ptr @_ZNK14ArchiveBuilder17get_buffered_addrEPh(ptr noundef nonnull align 8 dereferenceable(1080) %3, ptr noundef %4)
  ret ptr %5
}

; Function Attrs: mustprogress nounwind uwtable
define linkonce_odr hidden noundef nonnull align 8 dereferenceable(8) ptr @_ZN17GrowableArrayViewIP6SymbolE2atEi(ptr noundef nonnull align 8 dereferenceable(16) %0, i32 noundef %1) #1 comdat align 2 {
  %3 = alloca ptr, align 8
  %4 = alloca i32, align 4
  store ptr %0, ptr %3, align 8
  store i32 %1, ptr %4, align 4
  %5 = load ptr, ptr %3, align 8
  %6 = getelementptr inbounds %class.GrowableArrayView, ptr %5, i32 0, i32 1
  %7 = load ptr, ptr %6, align 8
  %8 = load i32, ptr %4, align 4
  %9 = sext i32 %8 to i64
  %10 = getelementptr inbounds ptr, ptr %7, i64 %9
  ret ptr %10
}

; Function Attrs: mustprogress nounwind uwtable
define linkonce_odr hidden noundef i32 @_ZNK17GrowableArrayBase6lengthEv(ptr noundef nonnull align 4 dereferenceable(8) %0) #1 comdat align 2 {
  %2 = alloca ptr, align 8
  store ptr %0, ptr %2, align 8
  %3 = load ptr, ptr %2, align 8
  %4 = getelementptr inbounds %class.GrowableArrayBase, ptr %3, i32 0, i32 0
  %5 = load i32, ptr %4, align 4
  ret i32 %5
}

; Function Attrs: mustprogress nounwind uwtable
define linkonce_odr hidden noundef ptr @_ZN14ArchiveBuilder7currentEv() #1 comdat align 2 {
  %1 = load ptr, ptr @_ZN14ArchiveBuilder8_currentE, align 8
  ret ptr %1
}

; Function Attrs: mustprogress nounwind uwtable
define hidden void @_ZN11SymbolTable24copy_shared_symbol_tableEP13GrowableArrayIP6SymbolEP22CompactHashtableWriter(ptr noundef %0, ptr noundef %1) #1 align 2 {
  %3 = alloca ptr, align 8
  %4 = alloca ptr, align 8
  %5 = alloca ptr, align 8
  %6 = alloca i32, align 4
  %7 = alloca i32, align 4
  %8 = alloca ptr, align 8
  %9 = alloca i32, align 4
  store ptr %0, ptr %3, align 8
  store ptr %1, ptr %4, align 8
  %10 = call noundef ptr @_ZN14ArchiveBuilder7currentEv()
  store ptr %10, ptr %5, align 8
  %11 = load ptr, ptr %3, align 8
  %12 = call noundef i32 @_ZNK17GrowableArrayBase6lengthEv(ptr noundef nonnull align 4 dereferenceable(8) %11)
  store i32 %12, ptr %6, align 4
  store i32 0, ptr %7, align 4
  br label %13

13:                                               ; preds = %34, %2
  %14 = load i32, ptr %7, align 4
  %15 = load i32, ptr %6, align 4
  %16 = icmp slt i32 %14, %15
  br i1 %16, label %17, label %37

17:                                               ; preds = %13
  %18 = load ptr, ptr %3, align 8
  %19 = load i32, ptr %7, align 4
  %20 = call noundef nonnull align 8 dereferenceable(8) ptr @_ZN17GrowableArrayViewIP6SymbolE2atEi(ptr noundef nonnull align 8 dereferenceable(16) %18, i32 noundef %19)
  %21 = load ptr, ptr %20, align 8
  %22 = call noundef ptr @_ZN14ArchiveBuilder19get_buffered_symbolEP6Symbol(ptr noundef %21)
  store ptr %22, ptr %8, align 8
  %23 = load ptr, ptr %8, align 8
  %24 = call noundef ptr @_ZNK6Symbol5bytesEv(ptr noundef nonnull align 4 dereferenceable(8) %23)
  %25 = load ptr, ptr %8, align 8
  %26 = call noundef i32 @_ZNK6Symbol11utf8_lengthEv(ptr noundef nonnull align 4 dereferenceable(8) %25)
  %27 = call noundef i32 @_ZL18hash_shared_symbolPKci(ptr noundef %24, i32 noundef %26)
  store i32 %27, ptr %9, align 4
  %28 = load ptr, ptr %8, align 8
  call void @_ZN6Symbol13set_permanentEv(ptr noundef nonnull align 4 dereferenceable(8) %28)
  %29 = load ptr, ptr %4, align 8
  %30 = load i32, ptr %9, align 4
  %31 = load ptr, ptr %5, align 8
  %32 = load ptr, ptr %8, align 8
  %33 = call noundef i32 @_ZNK14ArchiveBuilder19buffer_to_offset_u4IPhEEjT_(ptr noundef nonnull align 8 dereferenceable(1080) %31, ptr noundef %32)
  call void @_ZN22CompactHashtableWriter3addEjj(ptr noundef nonnull align 8 dereferenceable(56) %29, i32 noundef %30, i32 noundef %33)
  br label %34

34:                                               ; preds = %17
  %35 = load i32, ptr %7, align 4
  %36 = add nsw i32 %35, 1
  store i32 %36, ptr %7, align 4
  br label %13, !llvm.loop !17

37:                                               ; preds = %13
  ret void
}