; Function Attrs: mustprogress nounwind uwtable
define hidden void @_ZN11SymbolTable24copy_shared_symbol_tableEP13GrowableArrayIP6SymbolEP22CompactHashtableWriter(ptr nocapture noundef readonly %0, ptr noundef %1) local_unnamed_addr #0 align 2 {
  %3 = load ptr, ptr @_ZN14ArchiveBuilder8_currentE, align 8
  %4 = load i32, ptr %0, align 4
  %5 = icmp sgt i32 %4, 0
  br i1 %5, label %.lr.ph, label %._crit_edge

.lr.ph:                                           ; preds = %2
  %6 = getelementptr inbounds i8, ptr %0, i64 8
  %wide.trip.count = zext nneg i32 %4 to i64
  br label %7

7:                                                ; preds = %.lr.ph, %_ZNK14ArchiveBuilder19buffer_to_offset_u4IPhEEjT_.exit
  %indvars.iv = phi i64 [ 0, %.lr.ph ], [ %indvars.iv.next, %_ZNK14ArchiveBuilder19buffer_to_offset_u4IPhEEjT_.exit ]
  %8 = load ptr, ptr %6, align 8
  %9 = getelementptr inbounds ptr, ptr %8, i64 %indvars.iv
  %10 = load ptr, ptr %9, align 8
  %11 = load ptr, ptr @_ZN14ArchiveBuilder8_currentE, align 8
  %12 = tail call noundef ptr @_ZNK14ArchiveBuilder17get_buffered_addrEPh(ptr noundef nonnull align 8 dereferenceable(1080) %11, ptr noundef %10) #18
  %13 = getelementptr inbounds i8, ptr %12, i64 4
  %14 = load i16, ptr %13, align 4
  %.not = icmp eq i16 %14, 0
  br i1 %.not, label %_ZL18hash_shared_symbolPKci.exit, label %.lr.ph.i.i.preheader

.lr.ph.i.i.preheader:                             ; preds = %7
  %15 = zext i16 %14 to i32
  %16 = getelementptr inbounds i8, ptr %12, i64 6
  br label %.lr.ph.i.i

.lr.ph.i.i:                                       ; preds = %.lr.ph.i.i.preheader, %.lr.ph.i.i
  %.08.i.i = phi i32 [ %21, %.lr.ph.i.i ], [ 0, %.lr.ph.i.i.preheader ]
  %.047.i.i = phi i32 [ %17, %.lr.ph.i.i ], [ %15, %.lr.ph.i.i.preheader ]
  %.056.i.i = phi ptr [ %22, %.lr.ph.i.i ], [ %16, %.lr.ph.i.i.preheader ]
  %17 = add nsw i32 %.047.i.i, -1
  %18 = mul i32 %.08.i.i, 31
  %19 = load i8, ptr %.056.i.i, align 1
  %20 = zext i8 %19 to i32
  %21 = add i32 %18, %20
  %22 = getelementptr inbounds i8, ptr %.056.i.i, i64 1
  %23 = icmp ugt i32 %.047.i.i, 1
  br i1 %23, label %.lr.ph.i.i, label %_ZL18hash_shared_symbolPKci.exit, !llvm.loop !18

_ZL18hash_shared_symbolPKci.exit:                 ; preds = %.lr.ph.i.i, %7
  %.0.lcssa.i.i = phi i32 [ 0, %7 ], [ %21, %.lr.ph.i.i ]
  tail call void @_ZN6Symbol13set_permanentEv(ptr noundef nonnull align 4 dereferenceable(8) %12) #18
  %24 = tail call noundef i64 @_ZNK14ArchiveBuilder16buffer_to_offsetEPh(ptr noundef nonnull align 8 dereferenceable(1080) %3, ptr noundef nonnull %12) #18
  %25 = icmp ult i64 %24, 2147483648
  br i1 %25, label %_ZNK14ArchiveBuilder19buffer_to_offset_u4IPhEEjT_.exit, label %26

26:                                               ; preds = %_ZL18hash_shared_symbolPKci.exit
  %27 = load ptr, ptr @g_assert_poison, align 8
  store i8 88, ptr %27, align 1
  tail call void (ptr, i32, ptr, ptr, ...) @_Z15report_vm_errorPKciS0_S0_z(ptr noundef nonnull @.str.60, i32 noundef 319, ptr noundef nonnull @.str.61, ptr noundef nonnull @.str.62, i64 noundef %24) #20
  unreachable

_ZNK14ArchiveBuilder19buffer_to_offset_u4IPhEEjT_.exit: ; preds = %_ZL18hash_shared_symbolPKci.exit
  %28 = trunc nuw nsw i64 %24 to i32
  tail call void @_ZN22CompactHashtableWriter3addEjj(ptr noundef nonnull align 8 dereferenceable(56) %1, i32 noundef %.0.lcssa.i.i, i32 noundef %28) #18
  %indvars.iv.next = add nuw nsw i64 %indvars.iv, 1
  %exitcond.not = icmp eq i64 %indvars.iv.next, %wide.trip.count
  br i1 %exitcond.not, label %._crit_edge, label %7, !llvm.loop !31

._crit_edge:                                      ; preds = %_ZNK14ArchiveBuilder19buffer_to_offset_u4IPhEEjT_.exit, %2
  ret void
}